target datalayout = "e-m:e-p270:32:32-p271:32:32-p272:64:64-i64:64-i128:128-f80:128-n8:16:32:64-S128"
target triple = "x86_64-unknown-linux-gnu"

%"class.net::QuicAlarm" = type { ptr, %"class.net::QuicArenaScopedPtr", %"class.net::QuicTime" }
%"class.net::QuicArenaScopedPtr" = type { ptr }
%"class.net::QuicTime" = type { i64 }
%"class.logging::CheckOpResult" = type { ptr }
%"class.logging::LogMessage" = type <{ i32, [4 x i8], %"class.std::__cxx11::basic_ostringstream", i64, ptr, i32, [4 x i8] }>
%"class.std::__cxx11::basic_ostringstream" = type { %"class.std::basic_ostream.base", %"class.std::__cxx11::basic_stringbuf", %"class.std::basic_ios" }
%"class.std::basic_ostream.base" = type { ptr }
%"class.std::__cxx11::basic_stringbuf" = type { %"class.std::basic_streambuf", i32, %"class.std::__cxx11::basic_string" }
%"class.std::basic_streambuf" = type { ptr, ptr, ptr, ptr, ptr, ptr, ptr, %"class.std::locale" }
%"class.std::locale" = type { ptr }
%"class.std::__cxx11::basic_string" = type { %"struct.std::__cxx11::basic_string<char>::_Alloc_hider", i64, %union.anon }
%"struct.std::__cxx11::basic_string<char>::_Alloc_hider" = type { ptr }
%union.anon = type { i64, [8 x i8] }
%"class.std::basic_ios" = type { %"class.std::ios_base", ptr, i8, i8, ptr, ptr, ptr, ptr }
%"class.std::ios_base" = type { ptr, i64, i64, i32, i32, i32, ptr, %"struct.std::ios_base::_Words", [8 x %"struct.std::ios_base::_Words"], i32, ptr, %"class.std::locale" }
%"struct.std::ios_base::_Words" = type { ptr, i64 }

@_ZTVN3net9QuicAlarmE = dso_local unnamed_addr constant { [7 x ptr] } { [7 x ptr] [ptr null, ptr @_ZTIN3net9QuicAlarmE, ptr @_ZN3net9QuicAlarmD1Ev, ptr @_ZN3net9QuicAlarmD0Ev, ptr @__cxa_pure_virtual, ptr @__cxa_pure_virtual, ptr @_ZN3net9QuicAlarm10UpdateImplEv] }, align 8
@.str = private unnamed_addr constant [135 x i8] c"generated/home/dtcxzyw/WorkSpace/Projects/compilers/llvm-opt-benchmark/bench/libquic/libquic/src/net/quic/core/quic_arena_scoped_ptr.h\00", align 1

; Function Attrs: mustprogress nounwind uwtable
define linkonce_odr dso_local noundef nonnull align 8 dereferenceable(8) ptr @_ZN7logging10LogMessage6streamEv(ptr noundef nonnull align 8 dereferenceable(404) %this) #1 comdat align 2 {
entry:
  %this.addr = alloca ptr, align 8
  store ptr %this, ptr %this.addr, align 8
  %this1 = load ptr, ptr %this.addr, align 8
  %stream_ = getelementptr inbounds %"class.logging::LogMessage", ptr %this1, i32 0, i32 2
  ret ptr %stream_
}

; Function Attrs: mustprogress nounwind uwtable
define linkonce_odr dso_local noundef ptr @_ZN7logging13CheckOpResult7messageB5cxx11Ev(ptr noundef nonnull align 8 dereferenceable(8) %this) #1 comdat align 2 {
entry:
  %this.addr = alloca ptr, align 8
  store ptr %this, ptr %this.addr, align 8
  %this1 = load ptr, ptr %this.addr, align 8
  %message_ = getelementptr inbounds %"class.logging::CheckOpResult", ptr %this1, i32 0, i32 0
  %0 = load ptr, ptr %message_, align 8
  ret ptr %0
}

; Function Attrs: mustprogress nounwind uwtable
define linkonce_odr dso_local noundef zeroext i1 @_ZNK7logging13CheckOpResultcvbEv(ptr noundef nonnull align 8 dereferenceable(8) %this) #1 comdat align 2 {
entry:
  %this.addr = alloca ptr, align 8
  store ptr %this, ptr %this.addr, align 8
  %this1 = load ptr, ptr %this.addr, align 8
  %message_ = getelementptr inbounds %"class.logging::CheckOpResult", ptr %this1, i32 0, i32 0
  %0 = load ptr, ptr %message_, align 8
  %tobool = icmp ne ptr %0, null
  %lnot = xor i1 %tobool, true
  ret i1 %lnot
}

; Function Attrs: mustprogress nounwind uwtable
define linkonce_odr dso_local void @_ZN7logging13CheckOpResultC2EPNSt7__cxx1112basic_stringIcSt11char_traitsIcESaIcEEE(ptr noundef nonnull align 8 dereferenceable(8) %this, ptr noundef %message) unnamed_addr #1 comdat align 2 {
entry:
  %this.addr = alloca ptr, align 8
  %message.addr = alloca ptr, align 8
  store ptr %this, ptr %this.addr, align 8
  store ptr %message, ptr %message.addr, align 8
  %this1 = load ptr, ptr %this.addr, align 8
  %message_ = getelementptr inbounds %"class.logging::CheckOpResult", ptr %this1, i32 0, i32 0
  %0 = load ptr, ptr %message.addr, align 8
  store ptr %0, ptr %message_, align 8
  ret void
}

; Function Attrs: mustprogress nounwind uwtable
define linkonce_odr dso_local noundef ptr @_ZNK3net18QuicArenaScopedPtrINS_9QuicAlarm8DelegateEE3getEv(ptr noundef nonnull align 8 dereferenceable(8) %this) #1 comdat align 2 {
entry:
  %this.addr = alloca ptr, align 8
  store ptr %this, ptr %this.addr, align 8
  %this1 = load ptr, ptr %this.addr, align 8
  %value_ = getelementptr inbounds %"class.net::QuicArenaScopedPtr", ptr %this1, i32 0, i32 0
  %0 = load ptr, ptr %value_, align 8
  %1 = ptrtoint ptr %0 to i64
  %and = and i64 %1, -2
  %2 = inttoptr i64 %and to ptr
  ret ptr %2
}

; Function Attrs: mustprogress nounwind uwtable
define linkonce_odr dso_local noundef zeroext i1 @_ZN3net18QuicArenaScopedPtrINS_9QuicAlarm8DelegateEE13is_from_arenaEv(ptr noundef nonnull align 8 dereferenceable(8) %this) #1 comdat align 2 {
entry:
  %this.addr = alloca ptr, align 8
  store ptr %this, ptr %this.addr, align 8
  %this1 = load ptr, ptr %this.addr, align 8
  %value_ = getelementptr inbounds %"class.net::QuicArenaScopedPtr", ptr %this1, i32 0, i32 0
  %0 = load ptr, ptr %value_, align 8
  %1 = ptrtoint ptr %0 to i64
  %and = and i64 %1, 1
  %cmp = icmp ne i64 %and, 0
  ret i1 %cmp
}

; Function Attrs: noreturn nounwind uwtable
define linkonce_odr hidden void @__clang_call_terminate(ptr noundef %0) #5 comdat {
  %2 = call ptr @__cxa_begin_catch(ptr %0) #8
  call void @_ZSt9terminatev() #9
  unreachable
}

; Function Attrs: mustprogress uwtable
define linkonce_odr dso_local void @_ZN3net18QuicArenaScopedPtrINS_9QuicAlarm8DelegateEE5resetEPS2_(ptr noundef nonnull align 8 dereferenceable(8) %this, ptr noundef %value) #0 comdat align 2 personality ptr @__gxx_personality_v0 {
entry:
  %this.addr = alloca ptr, align 8
  %value.addr = alloca ptr, align 8
  %true_if_passed = alloca %"class.logging::CheckOpResult", align 8
  %ref.tmp = alloca %"class.logging::LogMessage", align 8
  %exn.slot = alloca ptr, align 8
  %ehselector.slot = alloca i32, align 4
  store ptr %this, ptr %this.addr, align 8
  store ptr %value, ptr %value.addr, align 8
  %this1 = load ptr, ptr %this.addr, align 8
  %value_ = getelementptr inbounds %"class.net::QuicArenaScopedPtr", ptr %this1, i32 0, i32 0
  %0 = load ptr, ptr %value_, align 8
  %cmp = icmp ne ptr %0, null
  br i1 %cmp, label %if.then, label %if.end7

if.then:                                          ; preds = %entry
  %call = call noundef zeroext i1 @_ZN3net18QuicArenaScopedPtrINS_9QuicAlarm8DelegateEE13is_from_arenaEv(ptr noundef nonnull align 8 dereferenceable(8) %this1)
  br i1 %call, label %if.then2, label %if.else

if.then2:                                         ; preds = %if.then
  %call3 = call noundef ptr @_ZNK3net18QuicArenaScopedPtrINS_9QuicAlarm8DelegateEE3getEv(ptr noundef nonnull align 8 dereferenceable(8) %this1)
  %vtable = load ptr, ptr %call3, align 8
  %vfn = getelementptr inbounds ptr, ptr %vtable, i64 0
  %1 = load ptr, ptr %vfn, align 8
  call void %1(ptr noundef nonnull align 8 dereferenceable(8) %call3) #8
  br label %if.end

if.else:                                          ; preds = %if.then
  %call4 = call noundef ptr @_ZNK3net18QuicArenaScopedPtrINS_9QuicAlarm8DelegateEE3getEv(ptr noundef nonnull align 8 dereferenceable(8) %this1)
  %isnull = icmp eq ptr %call4, null
  br i1 %isnull, label %delete.end, label %delete.notnull

delete.notnull:                                   ; preds = %if.else
  %vtable5 = load ptr, ptr %call4, align 8
  %vfn6 = getelementptr inbounds ptr, ptr %vtable5, i64 1
  %2 = load ptr, ptr %vfn6, align 8
  call void %2(ptr noundef nonnull align 8 dereferenceable(8) %call4) #8
  br label %delete.end

delete.end:                                       ; preds = %delete.notnull, %if.else
  br label %if.end

if.end:                                           ; preds = %delete.end, %if.then2
  br label %if.end7

if.end7:                                          ; preds = %if.end, %entry
  call void @_ZN7logging13CheckOpResultC2EPNSt7__cxx1112basic_stringIcSt11char_traitsIcESaIcEEE(ptr noundef nonnull align 8 dereferenceable(8) %true_if_passed, ptr noundef null)
  %call8 = call noundef zeroext i1 @_ZNK7logging13CheckOpResultcvbEv(ptr noundef nonnull align 8 dereferenceable(8) %true_if_passed)
  br i1 %call8, label %if.then9, label %if.else10

if.then9:                                         ; preds = %if.end7
  br label %if.end13

if.else10:                                        ; preds = %if.end7
  %call11 = call noundef ptr @_ZN7logging13CheckOpResult7messageB5cxx11Ev(ptr noundef nonnull align 8 dereferenceable(8) %true_if_passed)
  call void @_ZN7logging10LogMessageC1EPKciiPNSt7__cxx1112basic_stringIcSt11char_traitsIcESaIcEEE(ptr noundef nonnull align 8 dereferenceable(404) %ref.tmp, ptr noundef @.str, i32 noundef 190, i32 noundef 0, ptr noundef %call11)
  %call12 = invoke noundef nonnull align 8 dereferenceable(8) ptr @_ZN7logging10LogMessage6streamEv(ptr noundef nonnull align 8 dereferenceable(404) %ref.tmp)
          to label %invoke.cont unwind label %lpad

invoke.cont:                                      ; preds = %if.else10
  call void @_ZN7logging10LogMessageD1Ev(ptr noundef nonnull align 8 dereferenceable(404) %ref.tmp) #8
  br label %if.end13

lpad:                                             ; preds = %if.else10
  %3 = landingpad { ptr, i32 }
          cleanup
  %4 = extractvalue { ptr, i32 } %3, 0
  store ptr %4, ptr %exn.slot, align 8
  %5 = extractvalue { ptr, i32 } %3, 1
  store i32 %5, ptr %ehselector.slot, align 4
  call void @_ZN7logging10LogMessageD1Ev(ptr noundef nonnull align 8 dereferenceable(404) %ref.tmp) #8
  br label %eh.resume

if.end13:                                         ; preds = %invoke.cont, %if.then9
  %6 = load ptr, ptr %value.addr, align 8
  %value_14 = getelementptr inbounds %"class.net::QuicArenaScopedPtr", ptr %this1, i32 0, i32 0
  store ptr %6, ptr %value_14, align 8
  ret void

eh.resume:                                        ; preds = %lpad
  %exn = load ptr, ptr %exn.slot, align 8
  %sel = load i32, ptr %ehselector.slot, align 4
  %lpad.val = insertvalue { ptr, i32 } poison, ptr %exn, 0
  %lpad.val15 = insertvalue { ptr, i32 } %lpad.val, i32 %sel, 1
  resume { ptr, i32 } %lpad.val15
}

; Function Attrs: mustprogress nounwind uwtable
define linkonce_odr dso_local void @_ZN3net18QuicArenaScopedPtrINS_9QuicAlarm8DelegateEED2Ev(ptr noundef nonnull align 8 dereferenceable(8) %this) unnamed_addr #1 comdat align 2 personality ptr @__gxx_personality_v0 {
entry:
  %this.addr = alloca ptr, align 8
  store ptr %this, ptr %this.addr, align 8
  %this1 = load ptr, ptr %this.addr, align 8
  invoke void @_ZN3net18QuicArenaScopedPtrINS_9QuicAlarm8DelegateEE5resetEPS2_(ptr noundef nonnull align 8 dereferenceable(8) %this1, ptr noundef null)
          to label %invoke.cont unwind label %terminate.lpad

invoke.cont:                                      ; preds = %entry
  ret void

terminate.lpad:                                   ; preds = %entry
  %0 = landingpad { ptr, i32 }
          catch ptr null
  %1 = extractvalue { ptr, i32 } %0, 0
  call void @__clang_call_terminate(ptr %1) #9
  unreachable
}

; Function Attrs: mustprogress nounwind uwtable
define dso_local void @_ZN3net9QuicAlarmD2Ev(ptr noundef nonnull align 8 dereferenceable(24) %this) unnamed_addr #1 align 2 {
entry:
  %this.addr = alloca ptr, align 8
  store ptr %this, ptr %this.addr, align 8
  %this1 = load ptr, ptr %this.addr, align 8
  store ptr getelementptr inbounds ({ [7 x ptr] }, ptr @_ZTVN3net9QuicAlarmE, i32 0, i32 0, i32 2), ptr %this1, align 8
  %delegate_ = getelementptr inbounds %"class.net::QuicAlarm", ptr %this1, i32 0, i32 1
  call void @_ZN3net18QuicArenaScopedPtrINS_9QuicAlarm8DelegateEED2Ev(ptr noundef nonnull align 8 dereferenceable(8) %delegate_) #8
  ret void
}