; Function Attrs: mustprogress nounwind uwtable
define dso_local void @_ZN3net9QuicAlarmD2Ev(ptr nocapture noundef nonnull align 8 dereferenceable(24) %this) unnamed_addr #1 align 2 personality ptr @__gxx_personality_v0 {
entry:
  store ptr getelementptr inbounds ({ [7 x ptr] }, ptr @_ZTVN3net9QuicAlarmE, i64 0, i32 0, i64 2), ptr %this, align 8
  %delegate_ = getelementptr inbounds i8, ptr %this, i64 8
  %0 = load ptr, ptr %delegate_, align 8
  %cmp.not.i.i = icmp eq ptr %0, null
  br i1 %cmp.not.i.i, label %_ZN3net18QuicArenaScopedPtrINS_9QuicAlarm8DelegateEED2Ev.exit, label %if.then.i.i

if.then.i.i:                                      ; preds = %entry
  %1 = ptrtoint ptr %0 to i64
  %and.i.i.i = and i64 %1, 1
  %cmp.i.not.i.i = icmp eq i64 %and.i.i.i, 0
  br i1 %cmp.i.not.i.i, label %delete.notnull.i.i, label %if.then2.i.i

if.then2.i.i:                                     ; preds = %if.then.i.i
  %and.i1.i.i = and i64 %1, -2
  %2 = inttoptr i64 %and.i1.i.i to ptr
  %vtable.i.i = load ptr, ptr %2, align 8
  br label %if.end13.sink.split.i.i

delete.notnull.i.i:                               ; preds = %if.then.i.i
  %vtable5.i.i = load ptr, ptr %0, align 8
  %vfn6.i.i = getelementptr inbounds i8, ptr %vtable5.i.i, i64 8
  br label %if.end13.sink.split.i.i

if.end13.sink.split.i.i:                          ; preds = %delete.notnull.i.i, %if.then2.i.i
  %vfn6.sink.i.i = phi ptr [ %vfn6.i.i, %delete.notnull.i.i ], [ %vtable.i.i, %if.then2.i.i ]
  %.sink.i.i = phi ptr [ %0, %delete.notnull.i.i ], [ %2, %if.then2.i.i ]
  %3 = load ptr, ptr %vfn6.sink.i.i, align 8
  tail call void %3(ptr noundef nonnull align 8 dereferenceable(8) %.sink.i.i) #7
  br label %_ZN3net18QuicArenaScopedPtrINS_9QuicAlarm8DelegateEED2Ev.exit

_ZN3net18QuicArenaScopedPtrINS_9QuicAlarm8DelegateEED2Ev.exit: ; preds = %entry, %if.end13.sink.split.i.i
  store ptr null, ptr %delegate_, align 8
  ret void
}